	.file	"cond.c"
	.text
	.globl	cond1
	.type	cond1, @function
cond1:
.LFB0:
	.cfi_startproc
	endbr32
	pushl	%ebp
	.cfi_def_cfa_offset 8
	.cfi_offset 5, -8
	movl	%esp, %ebp
	.cfi_def_cfa_register 5
	call	__x86.get_pc_thunk.ax
	addl	$_GLOBAL_OFFSET_TABLE_, %eax
	cmpl	$0, 12(%ebp)
	je	.L6
	cmpl	$0, 8(%ebp)
	jle	.L7
	movl	12(%ebp), %eax
	movl	(%eax), %edx
	movl	8(%ebp), %eax
	addl	%eax, %edx
	movl	12(%ebp), %eax
	movl	%edx, (%eax)
	jmp	.L3
.L6:
	nop
	jmp	.L3
.L7:
	nop
.L3:
	movl	12(%ebp), %eax
	movl	(%eax), %eax
	popl	%ebp
	.cfi_restore 5
	.cfi_def_cfa 4, 4
	ret
	.cfi_endproc
.LFE0:
	.size	cond1, .-cond1
	.globl	cond2
	.type	cond2, @function
cond2:
.LFB1:
	.cfi_startproc
	endbr32
	pushl	%ebp
	.cfi_def_cfa_offset 8
	.cfi_offset 5, -8
	movl	%esp, %ebp
	.cfi_def_cfa_register 5
	call	__x86.get_pc_thunk.ax
	addl	$_GLOBAL_OFFSET_TABLE_, %eax
	cmpl	$0, 12(%ebp)
	je	.L13
	cmpl	$0, 8(%ebp)
	jle	.L13
	nop
.L10:
	endbr32
	movl	12(%ebp), %eax
	movl	(%eax), %edx
	movl	8(%ebp), %eax
	addl	%eax, %edx
	movl	12(%ebp), %eax
	movl	%edx, (%eax)
	jmp	.L11
.L13:
	nop
.L11:
	movl	12(%ebp), %eax
	movl	(%eax), %eax
	popl	%ebp
	.cfi_restore 5
	.cfi_def_cfa 4, 4
	ret
	.cfi_endproc
.LFE1:
	.size	cond2, .-cond2
	.section	.rodata
.LC0:
	.string	"%d"
	.text
	.globl	main
	.type	main, @function
main:
.LFB2:
	.cfi_startproc
	endbr32
	leal	4(%esp), %ecx
	.cfi_def_cfa 1, 0
	andl	$-16, %esp
	pushl	-4(%ecx)
	pushl	%ebp
	movl	%esp, %ebp
	.cfi_escape 0x10,0x5,0x2,0x75,0
	pushl	%ebx
	pushl	%ecx
	.cfi_escape 0xf,0x3,0x75,0x78,0x6
	.cfi_escape 0x10,0x3,0x2,0x75,0x7c
	subl	$32, %esp
	call	__x86.get_pc_thunk.bx
	addl	$_GLOBAL_OFFSET_TABLE_, %ebx
	movl	%gs:20, %eax
	movl	%eax, -12(%ebp)
	xorl	%eax, %eax
	movl	$5, -28(%ebp)
	movl	$7, -32(%ebp)
	leal	-32(%ebp), %eax
	movl	%eax, -24(%ebp)
	pushl	-24(%ebp)
	pushl	-28(%ebp)
	call	cond1
	addl	$8, %esp
	movl	%eax, -20(%ebp)
	pushl	-24(%ebp)
	pushl	-28(%ebp)
	call	cond2
	addl	$8, %esp
	movl	%eax, -16(%ebp)
	subl	$8, %esp
	pushl	-20(%ebp)
	leal	.LC0@GOTOFF(%ebx), %eax
	pushl	%eax
	call	printf@PLT
	addl	$16, %esp
	subl	$8, %esp
	pushl	-16(%ebp)
	leal	.LC0@GOTOFF(%ebx), %eax
	pushl	%eax
	call	printf@PLT
	addl	$16, %esp
	movl	$0, %eax
	movl	-12(%ebp), %edx
	xorl	%gs:20, %edx
	je	.L16
	call	__stack_chk_fail_local
.L16:
	leal	-8(%ebp), %esp
	popl	%ecx
	.cfi_restore 1
	.cfi_def_cfa 1, 0
	popl	%ebx
	.cfi_restore 3
	popl	%ebp
	.cfi_restore 5
	leal	-4(%ecx), %esp
	.cfi_def_cfa 4, 4
	ret
	.cfi_endproc
.LFE2:
	.size	main, .-main
	.section	.text.__x86.get_pc_thunk.ax,"axG",@progbits,__x86.get_pc_thunk.ax,comdat
	.globl	__x86.get_pc_thunk.ax
	.hidden	__x86.get_pc_thunk.ax
	.type	__x86.get_pc_thunk.ax, @function
__x86.get_pc_thunk.ax:
.LFB3:
	.cfi_startproc
	movl	(%esp), %eax
	ret
	.cfi_endproc
.LFE3:
	.section	.text.__x86.get_pc_thunk.bx,"axG",@progbits,__x86.get_pc_thunk.bx,comdat
	.globl	__x86.get_pc_thunk.bx
	.hidden	__x86.get_pc_thunk.bx
	.type	__x86.get_pc_thunk.bx, @function
__x86.get_pc_thunk.bx:
.LFB4:
	.cfi_startproc
	movl	(%esp), %ebx
	ret
	.cfi_endproc
.LFE4:
	.hidden	__stack_chk_fail_local
	.ident	"GCC: (Ubuntu 9.4.0-1ubuntu1~20.04.2) 9.4.0"
	.section	.note.GNU-stack,"",@progbits
	.section	.note.gnu.property,"a"
	.align 4
	.long	 1f - 0f
	.long	 4f - 1f
	.long	 5
0:
	.string	 "GNU"
1:
	.align 4
	.long	 0xc0000002
	.long	 3f - 2f
2:
	.long	 0x3
3:
	.align 4
4:
